; ModuleID = '53/1600.c'
source_filename = "53/1600.c"
target datalayout = "e-m:e-p270:32:32-p271:32:32-p272:64:64-i64:64-f80:128-n8:16:32:64-S128"
target triple = "x86_64-pc-linux-gnu"

@.str = private unnamed_addr constant [3 x i8] c"%d\00", align 1
@.str.1 = private unnamed_addr constant [4 x i8] c",%d\00", align 1

; Function Attrs: noinline nounwind uwtable
define dso_local i32 @main() #0 {
  %1 = alloca i32, align 4
  %2 = alloca i32, align 4
  %3 = alloca i32, align 4
  %4 = alloca i32, align 4
  %5 = alloca [300 x i32], align 16
  store i32 0, i32* %1, align 4
  %6 = call i32 (i8*, ...) @__isoc99_scanf(i8* getelementptr inbounds ([3 x i8], [3 x i8]* @.str, i64 0, i64 0), i32* %2)
  %7 = getelementptr inbounds [300 x i32], [300 x i32]* %5, i64 0, i64 0
  %8 = call i32 (i8*, ...) @__isoc99_scanf(i8* getelementptr inbounds ([3 x i8], [3 x i8]* @.str, i64 0, i64 0), i32* %7)
  %9 = getelementptr inbounds [300 x i32], [300 x i32]* %5, i64 0, i64 0
  %10 = load i32, i32* %9, align 16
  %11 = call i32 (i8*, ...) @printf(i8* getelementptr inbounds ([3 x i8], [3 x i8]* @.str, i64 0, i64 0), i32 %10)
  store i32 1, i32* %3, align 4
  br label %12

12:                                               ; preds = %21, %0
  %13 = load i32, i32* %3, align 4
  %14 = load i32, i32* %2, align 4
  %15 = icmp slt i32 %13, %14
  br i1 %15, label %16, label %24

16:                                               ; preds = %12
  %17 = load i32, i32* %3, align 4
  %18 = sext i32 %17 to i64
  %19 = getelementptr inbounds [300 x i32], [300 x i32]* %5, i64 0, i64 %18
  %20 = call i32 (i8*, ...) @__isoc99_scanf(i8* getelementptr inbounds ([3 x i8], [3 x i8]* @.str, i64 0, i64 0), i32* %19)
  br label %21

21:                                               ; preds = %16
  %22 = load i32, i32* %3, align 4
  %23 = add nsw i32 %22, 1
  store i32 %23, i32* %3, align 4
  br label %12

24:                                               ; preds = %12
  store i32 1, i32* %3, align 4
  br label %25

25:                                               ; preds = %53, %24
  %26 = load i32, i32* %3, align 4
  %27 = load i32, i32* %2, align 4
  %28 = icmp slt i32 %26, %27
  br i1 %28, label %29, label %56

29:                                               ; preds = %25
  store i32 0, i32* %4, align 4
  br label %30

30:                                               ; preds = %49, %29
  %31 = load i32, i32* %4, align 4
  %32 = load i32, i32* %3, align 4
  %33 = icmp slt i32 %31, %32
  br i1 %33, label %34, label %52

34:                                               ; preds = %30
  %35 = load i32, i32* %3, align 4
  %36 = sext i32 %35 to i64
  %37 = getelementptr inbounds [300 x i32], [300 x i32]* %5, i64 0, i64 %36
  %38 = load i32, i32* %37, align 4
  %39 = load i32, i32* %4, align 4
  %40 = sext i32 %39 to i64
  %41 = getelementptr inbounds [300 x i32], [300 x i32]* %5, i64 0, i64 %40
  %42 = load i32, i32* %41, align 4
  %43 = icmp eq i32 %38, %42
  br i1 %43, label %44, label %48

44:                                               ; preds = %34
  %45 = load i32, i32* %3, align 4
  %46 = sext i32 %45 to i64
  %47 = getelementptr inbounds [300 x i32], [300 x i32]* %5, i64 0, i64 %46
  store i32 0, i32* %47, align 4
  br label %48

48:                                               ; preds = %44, %34
  br label %49

49:                                               ; preds = %48
  %50 = load i32, i32* %4, align 4
  %51 = add nsw i32 %50, 1
  store i32 %51, i32* %4, align 4
  br label %30

52:                                               ; preds = %30
  br label %53

53:                                               ; preds = %52
  %54 = load i32, i32* %3, align 4
  %55 = add nsw i32 %54, 1
  store i32 %55, i32* %3, align 4
  br label %25

56:                                               ; preds = %25
  store i32 1, i32* %3, align 4
  br label %57

57:                                               ; preds = %74, %56
  %58 = load i32, i32* %3, align 4
  %59 = load i32, i32* %2, align 4
  %60 = icmp slt i32 %58, %59
  br i1 %60, label %61, label %77

61:                                               ; preds = %57
  %62 = load i32, i32* %3, align 4
  %63 = sext i32 %62 to i64
  %64 = getelementptr inbounds [300 x i32], [300 x i32]* %5, i64 0, i64 %63
  %65 = load i32, i32* %64, align 4
  %66 = icmp ne i32 %65, 0
  br i1 %66, label %67, label %73

67:                                               ; preds = %61
  %68 = load i32, i32* %3, align 4
  %69 = sext i32 %68 to i64
  %70 = getelementptr inbounds [300 x i32], [300 x i32]* %5, i64 0, i64 %69
  %71 = load i32, i32* %70, align 4
  %72 = call i32 (i8*, ...) @printf(i8* getelementptr inbounds ([4 x i8], [4 x i8]* @.str.1, i64 0, i64 0), i32 %71)
  br label %73

73:                                               ; preds = %67, %61
  br label %74

74:                                               ; preds = %73
  %75 = load i32, i32* %3, align 4
  %76 = add nsw i32 %75, 1
  store i32 %76, i32* %3, align 4
  br label %57

77:                                               ; preds = %57
  %78 = load i32, i32* %1, align 4
  ret i32 %78
}

declare dso_local i32 @__isoc99_scanf(i8*, ...) #1

declare dso_local i32 @printf(i8*, ...) #1


!llvm.module.flags = !{!0}
!llvm.ident = !{!1}

!0 = !{i32 1, !"wchar_size", i32 4}
!1 = !{!"clang version 10.0.0-4ubuntu1 "}
